Certificate:
    Data:
        Version: 3 (0x2)
        Serial Number: 2 (0x2)
    Signature Algorithm: sha1WithRSAEncryption
        Issuer: C=CI, ST=Lagune, L=Abidjan, O=Cantbreakit, CN=www.root_cbi_g2.fr/emailAddress=root_cbi_g2@mail.fr
        Validity
            Not Before: Oct 13 09:04:41 2016 GMT
            Not After : Oct 13 09:04:41 2017 GMT
        Subject: C=CI, ST=Lagune, L=Abidjan, O=Cantbreakit, CN=www.clientvpn.fr/emailAddress=client@cantbreakit.fr
        Subject Public Key Info:
            Public Key Algorithm: rsaEncryption
                Public-Key: (1024 bit)
                Modulus:
                    00:98:cc:02:d3:ae:73:0c:73:f4:2d:e0:6a:29:3e:
                    e2:fa:c5:d1:c6:0b:39:ba:da:73:34:21:95:8d:ec:
                    ef:c4:41:ff:02:91:fa:84:79:7a:07:e4:ec:5e:d8:
                    21:2c:07:ef:b3:9a:41:99:41:44:1b:8a:2e:0b:a1:
                    43:aa:90:d2:4f:fb:0c:aa:f4:a8:d6:5c:2b:3c:bc:
                    52:1f:5f:31:de:01:f0:cf:ca:90:ea:83:ba:fb:03:
                    35:fc:a6:ef:13:5a:b5:03:8e:c2:6f:bf:c9:33:8c:
                    6c:f2:e0:cb:a9:17:1a:54:a9:9f:d1:1e:90:16:35:
                    38:4a:fa:96:7d:56:dc:66:d5
                Exponent: 65537 (0x10001)
        X509v3 extensions:
            Netscape Comment: 
                Certificat Serveur SSL
            X509v3 Subject Key Identifier: 
                9A:38:48:79:6D:55:43:A1:41:44:70:40:A2:2B:2F:A1:A4:DC:58:F2
            X509v3 Authority Key Identifier: 
                keyid:EB:1A:88:B2:47:EA:BF:24:64:EE:69:41:67:0C:D7:60:86:37:15:3B
                DirName:/C=FR/ST=Ile-de-France/L=Grigny/O=Cantbreakit/CN=www.root.fr/emailAddress=root@mail.fr
                serial:01

            X509v3 Issuer Alternative Name: 
                <EMPTY>

            X509v3 Subject Alternative Name: 
                DNS:www.webserver.com, DNS:www.webserver-bis.com
            X509v3 Basic Constraints: critical
                CA:FALSE
            X509v3 Key Usage: 
                Digital Signature, Non Repudiation, Key Encipherment
            Netscape Cert Type: 
                SSL Server
            X509v3 Extended Key Usage: 
                TLS Web Server Authentication
    Signature Algorithm: sha1WithRSAEncryption
         6d:50:44:61:64:ac:22:09:8e:e3:3b:58:2a:55:73:5e:7a:cf:
         e9:4c:1a:b0:8f:26:76:34:ba:7e:da:28:64:c8:c4:5d:4c:3c:
         66:f8:d7:0d:26:71:09:af:67:e3:f5:41:2f:26:57:0e:0d:f0:
         a0:f9:a1:4a:ce:4f:60:d3:ed:67:07:b2:de:b6:8d:27:56:87:
         b3:60:ce:08:64:f7:59:82:89:eb:11:3d:01:64:b4:7a:41:53:
         1f:61:5e:b5:8d:d6:aa:c9:1a:43:e3:e0:56:90:81:a7:be:ab:
         a4:ff:6c:c6:0e:c5:fc:ad:ae:29:c2:5d:2a:fa:5f:90:1a:ef:
         5c:25:5e:03:1e:9c:b4:55:a6:ea:02:8a:20:ce:42:71:7f:74:
         43:fb:a8:5f:09:0f:d1:ee:bc:58:4b:3c:b4:a0:00:42:c7:77:
         59:a5:b3:06:dd:00:22:4e:f6:e8:39:48:4c:19:17:00:a0:a7:
         52:6d:4e:5c:97:05:8c:ed:4a:4d:b0:45:49:da:7d:df:27:38:
         c8:b5:45:90:97:01:0f:62:a8:f8:2e:f2:94:71:b2:a7:42:76:
         60:18:d5:95:4a:cd:8b:0c:fa:02:7b:2a:7b:61:e3:72:55:65:
         3a:ad:2d:a2:73:be:7f:1a:08:4c:50:2e:78:02:16:ea:58:4f:
         d7:56:cc:db
-----BEGIN CERTIFICATE-----
MIIEhDCCA2ygAwIBAgIBAjANBgkqhkiG9w0BAQUFADCBhzELMAkGA1UEBhMCQ0kx
DzANBgNVBAgMBkxhZ3VuZTEQMA4GA1UEBwwHQWJpZGphbjEUMBIGA1UECgwLQ2Fu
dGJyZWFraXQxGzAZBgNVBAMMEnd3dy5yb290X2NiaV9nMi5mcjEiMCAGCSqGSIb3
DQEJARYTcm9vdF9jYmlfZzJAbWFpbC5mcjAeFw0xNjEwMTMwOTA0NDFaFw0xNzEw
MTMwOTA0NDFaMIGHMQswCQYDVQQGEwJDSTEPMA0GA1UECAwGTGFndW5lMRAwDgYD
VQQHDAdBYmlkamFuMRQwEgYDVQQKDAtDYW50YnJlYWtpdDEZMBcGA1UEAwwQd3d3
LmNsaWVudHZwbi5mcjEkMCIGCSqGSIb3DQEJARYVY2xpZW50QGNhbnRicmVha2l0
LmZyMIGfMA0GCSqGSIb3DQEBAQUAA4GNADCBiQKBgQCYzALTrnMMc/Qt4GopPuL6
xdHGCzm62nM0IZWN7O/EQf8CkfqEeXoH5Oxe2CEsB++zmkGZQUQbii4LoUOqkNJP
+wyq9KjWXCs8vFIfXzHeAfDPypDqg7r7AzX8pu8TWrUDjsJvv8kzjGzy4MupFxpU
qZ/RHpAWNThK+pZ9Vtxm1QIDAQABo4IBezCCAXcwJQYJYIZIAYb4QgENBBgWFkNl
cnRpZmljYXQgU2VydmV1ciBTU0wwHQYDVR0OBBYEFJo4SHltVUOhQURwQKIrL6Gk
3FjyMIGrBgNVHSMEgaMwgaCAFOsaiLJH6r8kZO5pQWcM12CGNxU7oYGEpIGBMH8x
CzAJBgNVBAYTAkZSMRYwFAYDVQQIDA1JbGUtZGUtRnJhbmNlMQ8wDQYDVQQHDAZH
cmlnbnkxFDASBgNVBAoMC0NhbnRicmVha2l0MRQwEgYDVQQDDAt3d3cucm9vdC5m
cjEbMBkGCSqGSIb3DQEJARYMcm9vdEBtYWlsLmZyggEBMAkGA1UdEgQCMAAwMwYD
VR0RBCwwKoIRd3d3LndlYnNlcnZlci5jb22CFXd3dy53ZWJzZXJ2ZXItYmlzLmNv
bTAMBgNVHRMBAf8EAjAAMAsGA1UdDwQEAwIF4DARBglghkgBhvhCAQEEBAMCBkAw
EwYDVR0lBAwwCgYIKwYBBQUHAwEwDQYJKoZIhvcNAQEFBQADggEBAG1QRGFkrCIJ
juM7WCpVc156z+lMGrCPJnY0un7aKGTIxF1MPGb41w0mcQmvZ+P1QS8mVw4N8KD5
oUrOT2DT7WcHst62jSdWh7Ngzghk91mCiesRPQFktHpBUx9hXrWN1qrJGkPj4FaQ
gae+q6T/bMYOxfytrinCXSr6X5Aa71wlXgMenLRVpuoCiiDOQnF/dEP7qF8JD9Hu
vFhLPLSgAELHd1mlswbdACJO9ug5SEwZFwCgp1JtTlyXBYztSk2wRUnafd8nOMi1
RZCXAQ9iqPgu8pRxsqdCdmAY1ZVKzYsM+gJ7Knth43JVZTqtLaJzvn8aCExQLngC
FupYT9dWzNs=
-----END CERTIFICATE-----
