Certificate:
    Data:
        Version: 3 (0x2)
        Serial Number: 1 (0x1)
    Signature Algorithm: sha1WithRSAEncryption
        Issuer: C=FR, ST=Essonne, L=Juvisy, O=Cantbreakit, CN=www.semestre2.fr/emailAddress=semestre2@mail.fr
        Validity
            Not Before: Oct 13 09:46:07 2016 GMT
            Not After : Oct 13 09:46:07 2017 GMT
        Subject: C=FR, ST=Essonne, L=Juvisy, O=Cantbreakit, CN=www.test1.fr/emailAddress=test@cantbreakit.fr
        Subject Public Key Info:
            Public Key Algorithm: rsaEncryption
                Public-Key: (1024 bit)
                Modulus:
                    00:ac:8b:f8:98:fd:c8:7a:df:8d:7d:90:8e:c3:37:
                    2d:09:84:d0:59:d7:ce:31:61:47:2f:1c:d2:78:cd:
                    93:c9:4f:6b:4f:67:da:bc:68:fd:b5:14:f3:d0:73:
                    62:f9:ac:a4:73:0c:c0:df:d6:08:52:05:06:2d:a9:
                    d3:38:f2:08:bf:b7:fc:dc:15:97:73:38:06:59:2f:
                    a3:9c:fc:48:0c:d2:ea:98:d3:9a:99:e1:4a:12:db:
                    df:dd:a5:09:ab:e9:d2:6a:92:b2:d2:57:3c:e1:96:
                    d0:39:05:a7:cf:55:77:da:f2:bb:e8:ed:a7:98:a9:
                    3a:ae:e1:7f:a6:96:67:6c:11
                Exponent: 65537 (0x10001)
        X509v3 extensions:
            Netscape Comment: 
                Certificat Serveur SSL
            X509v3 Subject Key Identifier: 
                9E:EF:57:69:1D:D4:89:17:51:3D:EF:32:75:F7:40:4E:8D:38:61:9C
            X509v3 Authority Key Identifier: 
                keyid:7D:D9:08:E2:B3:9F:A8:A8:66:3E:88:D1:FF:D1:26:A2:06:2A:3E:FA
                DirName:/C=FR/ST=Ile-de-France/L=Grigny/O=Cantbreakit/CN=www.root.fr/emailAddress=root@mail.fr
                serial:02

            X509v3 Issuer Alternative Name: 
                <EMPTY>

            X509v3 Subject Alternative Name: 
                DNS:www.webserver.com, DNS:www.webserver-bis.com
            X509v3 Basic Constraints: critical
                CA:FALSE
            X509v3 Key Usage: 
                Digital Signature, Non Repudiation, Key Encipherment
            Netscape Cert Type: 
                SSL Server
            X509v3 Extended Key Usage: 
                TLS Web Server Authentication
    Signature Algorithm: sha1WithRSAEncryption
         61:c5:ef:a7:05:bc:cf:34:0b:a0:00:8b:96:3b:06:f0:d4:38:
         30:63:71:1f:fd:88:f6:17:1c:18:a7:e9:85:1f:bd:47:ad:21:
         33:8b:7c:34:ed:1b:46:b5:99:89:ae:14:ce:56:3e:65:b5:f7:
         31:88:8a:5c:f1:f6:5d:d6:3f:3f:12:05:05:21:8a:ee:73:57:
         b4:13:72:f7:f6:1c:57:b5:00:f2:6e:03:f7:af:73:2f:aa:0e:
         c4:f0:7b:a9:1a:3a:11:29:ca:60:8c:52:62:d1:81:43:7a:39:
         b4:b5:ea:89:66:c6:f2:e8:6a:f0:f9:19:51:09:ee:50:5a:3b:
         a5:33:0c:64:89:37:3b:c8:52:94:91:35:87:e3:89:77:bf:f4:
         62:6d:6c:04:3d:bd:a7:2e:14:fa:90:f9:0c:0f:25:34:0a:52:
         94:ec:ff:eb:4a:70:3b:fc:a6:26:06:5a:5c:06:e8:f6:fc:ca:
         f5:ca:7c:dc:38:4d:b3:d5:c9:f5:b6:bb:e1:77:35:e5:5d:a2:
         bd:ee:56:d0:8d:84:82:40:43:e3:b0:58:91:81:e3:18:62:b1:
         c6:3a:0a:4d:c4:20:26:e7:5c:e7:2d:b0:ec:49:41:3f:a8:0f:
         cf:35:75:76:b4:7a:1b:f1:3b:3d:2b:c2:4e:f6:62:7e:5e:dc:
         e8:37:c7:46
-----BEGIN CERTIFICATE-----
MIIEejCCA2KgAwIBAgIBATANBgkqhkiG9w0BAQUFADCBgzELMAkGA1UEBhMCRlIx
EDAOBgNVBAgMB0Vzc29ubmUxDzANBgNVBAcMBkp1dmlzeTEUMBIGA1UECgwLQ2Fu
dGJyZWFraXQxGTAXBgNVBAMMEHd3dy5zZW1lc3RyZTIuZnIxIDAeBgkqhkiG9w0B
CQEWEXNlbWVzdHJlMkBtYWlsLmZyMB4XDTE2MTAxMzA5NDYwN1oXDTE3MTAxMzA5
NDYwN1owgYExCzAJBgNVBAYTAkZSMRAwDgYDVQQIDAdFc3Nvbm5lMQ8wDQYDVQQH
DAZKdXZpc3kxFDASBgNVBAoMC0NhbnRicmVha2l0MRUwEwYDVQQDDAx3d3cudGVz
dDEuZnIxIjAgBgkqhkiG9w0BCQEWE3Rlc3RAY2FudGJyZWFraXQuZnIwgZ8wDQYJ
KoZIhvcNAQEBBQADgY0AMIGJAoGBAKyL+Jj9yHrfjX2QjsM3LQmE0FnXzjFhRy8c
0njNk8lPa09n2rxo/bUU89BzYvmspHMMwN/WCFIFBi2p0zjyCL+3/NwVl3M4Blkv
o5z8SAzS6pjTmpnhShLb392lCavp0mqSstJXPOGW0DkFp89Vd9ryu+jtp5ipOq7h
f6aWZ2wRAgMBAAGjggF7MIIBdzAlBglghkgBhvhCAQ0EGBYWQ2VydGlmaWNhdCBT
ZXJ2ZXVyIFNTTDAdBgNVHQ4EFgQUnu9XaR3UiRdRPe8ydfdATo04YZwwgasGA1Ud
IwSBozCBoIAUfdkI4rOfqKhmPojR/9EmogYqPvqhgYSkgYEwfzELMAkGA1UEBhMC
RlIxFjAUBgNVBAgMDUlsZS1kZS1GcmFuY2UxDzANBgNVBAcMBkdyaWdueTEUMBIG
A1UECgwLQ2FudGJyZWFraXQxFDASBgNVBAMMC3d3dy5yb290LmZyMRswGQYJKoZI
hvcNAQkBFgxyb290QG1haWwuZnKCAQIwCQYDVR0SBAIwADAzBgNVHREELDAqghF3
d3cud2Vic2VydmVyLmNvbYIVd3d3LndlYnNlcnZlci1iaXMuY29tMAwGA1UdEwEB
/wQCMAAwCwYDVR0PBAQDAgXgMBEGCWCGSAGG+EIBAQQEAwIGQDATBgNVHSUEDDAK
BggrBgEFBQcDATANBgkqhkiG9w0BAQUFAAOCAQEAYcXvpwW8zzQLoACLljsG8NQ4
MGNxH/2I9hccGKfphR+9R60hM4t8NO0bRrWZia4UzlY+ZbX3MYiKXPH2XdY/PxIF
BSGK7nNXtBNy9/YcV7UA8m4D969zL6oOxPB7qRo6ESnKYIxSYtGBQ3o5tLXqiWbG
8uhq8PkZUQnuUFo7pTMMZIk3O8hSlJE1h+OJd7/0Ym1sBD29py4U+pD5DA8lNApS
lOz/60pwO/ymJgZaXAbo9vzK9cp83DhNs9XJ9ba74Xc15V2ive5W0I2EgkBD47BY
kYHjGGKxxjoKTcQgJudc5y2w7ElBP6gPzzV1drR6G/E7PSvCTvZifl7c6DfHRg==
-----END CERTIFICATE-----
