Certificate:
    Data:
        Version: 3 (0x2)
        Serial Number: 3 (0x3)
    Signature Algorithm: sha1WithRSAEncryption
        Issuer: C=CI, ST=Lagune, L=Abidjan, O=Cantbreakit, CN=www.root_cbi_g2.fr/emailAddress=root_cbi_g2@mail.fr
        Validity
            Not Before: Oct 13 09:26:53 2016 GMT
            Not After : Oct 13 09:26:53 2017 GMT
        Subject: C=CI, ST=Lagune, L=Abidjan, O=Cantbreakit, CN=www.cantbreakit.fr/emailAddress=serveurcant@cantbreakit.fr
        Subject Public Key Info:
            Public Key Algorithm: rsaEncryption
                Public-Key: (1024 bit)
                Modulus:
                    00:da:8a:04:e0:c9:70:3c:22:1f:c2:39:6e:78:ce:
                    01:bf:e5:6c:dc:4b:02:f5:ae:83:57:34:22:7d:83:
                    cb:42:73:b1:97:4f:27:4b:ca:2e:7a:d3:67:48:e5:
                    b5:70:03:7d:d3:86:66:bd:2f:a7:9e:ea:cd:5b:3e:
                    03:c2:61:3c:06:59:8d:9a:11:c8:ed:9a:64:a2:c2:
                    7f:55:cd:5b:ec:0f:87:11:98:75:da:e3:01:4d:58:
                    51:bb:8e:20:5d:9f:07:25:db:35:08:aa:6c:f6:d1:
                    50:0d:d9:ad:b7:ba:98:50:e1:55:be:96:30:47:9a:
                    93:15:35:cd:01:eb:2c:76:d3
                Exponent: 65537 (0x10001)
        X509v3 extensions:
            Netscape Comment: 
                Certificat Serveur SSL
            X509v3 Subject Key Identifier: 
                53:CE:36:55:21:0B:A0:D3:0A:7F:A4:EB:AB:8B:D5:59:D0:39:A9:73
            X509v3 Authority Key Identifier: 
                keyid:EB:1A:88:B2:47:EA:BF:24:64:EE:69:41:67:0C:D7:60:86:37:15:3B
                DirName:/C=FR/ST=Ile-de-France/L=Grigny/O=Cantbreakit/CN=www.root.fr/emailAddress=root@mail.fr
                serial:01

            X509v3 Issuer Alternative Name: 
                <EMPTY>

            X509v3 Subject Alternative Name: 
                DNS:www.webserver.com, DNS:www.webserver-bis.com
            X509v3 Basic Constraints: critical
                CA:FALSE
            X509v3 Key Usage: 
                Digital Signature, Non Repudiation, Key Encipherment
            Netscape Cert Type: 
                SSL Server
            X509v3 Extended Key Usage: 
                TLS Web Server Authentication
    Signature Algorithm: sha1WithRSAEncryption
         4a:e3:d3:ee:02:2e:f7:1e:6e:ca:61:7c:73:e2:6d:61:c7:08:
         e8:6f:4c:73:ad:31:08:25:57:2b:48:b3:e0:74:5c:8e:18:0c:
         a6:ea:8b:dd:e7:bf:2d:8d:ad:a9:d9:1f:6d:ed:a9:1c:96:30:
         0e:a0:15:38:b2:74:13:90:05:6d:8e:92:fc:c6:93:37:0f:e5:
         88:be:b4:df:01:3d:ec:66:09:f2:5a:a2:fa:ae:14:83:56:45:
         10:62:da:77:c3:04:29:4b:89:df:80:e9:8c:f3:e9:1c:d3:c0:
         3b:b1:fc:9d:74:46:15:5a:c0:19:4d:17:a3:58:ac:a6:49:b8:
         8f:c6:e3:10:ef:a2:a6:1b:40:e9:a2:f6:39:6c:8e:f4:cb:83:
         10:8f:32:33:de:ae:5a:ff:c4:83:43:d4:be:e0:5f:cf:35:17:
         50:e2:78:f4:8f:ff:81:b4:7f:66:27:34:d1:69:f8:65:18:c5:
         f2:ea:83:cd:b8:e0:39:13:ef:13:19:87:9c:c9:bd:67:1c:13:
         00:b7:58:9e:82:be:7a:52:21:df:96:21:eb:79:c4:67:82:b3:
         27:6b:81:06:e8:87:68:9d:b7:02:6d:dc:e2:42:bd:97:f8:b2:
         ff:d8:a2:2a:5a:b3:a8:4d:e8:d5:34:49:24:b0:f0:01:a9:bf:
         6e:65:96:85
-----BEGIN CERTIFICATE-----
MIIEizCCA3OgAwIBAgIBAzANBgkqhkiG9w0BAQUFADCBhzELMAkGA1UEBhMCQ0kx
DzANBgNVBAgMBkxhZ3VuZTEQMA4GA1UEBwwHQWJpZGphbjEUMBIGA1UECgwLQ2Fu
dGJyZWFraXQxGzAZBgNVBAMMEnd3dy5yb290X2NiaV9nMi5mcjEiMCAGCSqGSIb3
DQEJARYTcm9vdF9jYmlfZzJAbWFpbC5mcjAeFw0xNjEwMTMwOTI2NTNaFw0xNzEw
MTMwOTI2NTNaMIGOMQswCQYDVQQGEwJDSTEPMA0GA1UECAwGTGFndW5lMRAwDgYD
VQQHDAdBYmlkamFuMRQwEgYDVQQKDAtDYW50YnJlYWtpdDEbMBkGA1UEAwwSd3d3
LmNhbnRicmVha2l0LmZyMSkwJwYJKoZIhvcNAQkBFhpzZXJ2ZXVyY2FudEBjYW50
YnJlYWtpdC5mcjCBnzANBgkqhkiG9w0BAQEFAAOBjQAwgYkCgYEA2ooE4MlwPCIf
wjlueM4Bv+Vs3EsC9a6DVzQifYPLQnOxl08nS8ouetNnSOW1cAN904ZmvS+nnurN
Wz4DwmE8BlmNmhHI7ZpkosJ/Vc1b7A+HEZh12uMBTVhRu44gXZ8HJds1CKps9tFQ
Ddmtt7qYUOFVvpYwR5qTFTXNAessdtMCAwEAAaOCAXswggF3MCUGCWCGSAGG+EIB
DQQYFhZDZXJ0aWZpY2F0IFNlcnZldXIgU1NMMB0GA1UdDgQWBBRTzjZVIQug0wp/
pOuri9VZ0DmpczCBqwYDVR0jBIGjMIGggBTrGoiyR+q/JGTuaUFnDNdghjcVO6GB
hKSBgTB/MQswCQYDVQQGEwJGUjEWMBQGA1UECAwNSWxlLWRlLUZyYW5jZTEPMA0G
A1UEBwwGR3JpZ255MRQwEgYDVQQKDAtDYW50YnJlYWtpdDEUMBIGA1UEAwwLd3d3
LnJvb3QuZnIxGzAZBgkqhkiG9w0BCQEWDHJvb3RAbWFpbC5mcoIBATAJBgNVHRIE
AjAAMDMGA1UdEQQsMCqCEXd3dy53ZWJzZXJ2ZXIuY29tghV3d3cud2Vic2VydmVy
LWJpcy5jb20wDAYDVR0TAQH/BAIwADALBgNVHQ8EBAMCBeAwEQYJYIZIAYb4QgEB
BAQDAgZAMBMGA1UdJQQMMAoGCCsGAQUFBwMBMA0GCSqGSIb3DQEBBQUAA4IBAQBK
49PuAi73Hm7KYXxz4m1hxwjob0xzrTEIJVcrSLPgdFyOGAym6ovd578tja2p2R9t
7akcljAOoBU4snQTkAVtjpL8xpM3D+WIvrTfAT3sZgnyWqL6rhSDVkUQYtp3wwQp
S4nfgOmM8+kc08A7sfyddEYVWsAZTRejWKymSbiPxuMQ76KmG0DpovY5bI70y4MQ
jzIz3q5a/8SDQ9S+4F/PNRdQ4nj0j/+BtH9mJzTRafhlGMXy6oPNuOA5E+8TGYec
yb1nHBMAt1iegr56UiHfliHrecRngrMna4EG6IdonbcCbdziQr2X+LL/2KIqWrOo
TejVNEkksPABqb9uZZaF
-----END CERTIFICATE-----
