Certificate:
    Data:
        Version: 3 (0x2)
        Serial Number: 2 (0x2)
    Signature Algorithm: sha1WithRSAEncryption
        Issuer: C=FR, ST=Ile-de-France, L=Grigny, O=Cantbreakit, CN=www.root.fr/emailAddress=root@mail.fr
        Validity
            Not Before: Oct 11 09:29:09 2016 GMT
            Not After : Oct 11 09:29:09 2017 GMT
        Subject: C=FR, ST=Essonne, L=Juvisy, O=Cantbreakit, CN=www.semestre2.fr/emailAddress=semestre2@mail.fr
        Subject Public Key Info:
            Public Key Algorithm: rsaEncryption
                Public-Key: (2048 bit)
                Modulus:
                    00:ac:9c:dc:31:0a:8f:20:bc:d0:2b:fd:ae:b2:4a:
                    89:ca:0f:2d:17:c1:93:c0:97:8b:81:7b:91:ca:8a:
                    7a:d8:9a:fb:d7:32:c7:11:82:94:6a:08:ee:4b:23:
                    c1:a3:d5:9e:85:52:df:60:20:bf:a3:ef:ab:69:af:
                    f4:97:44:c3:3a:88:c1:32:63:08:0d:06:9a:53:9a:
                    7d:e0:3b:03:b7:f0:c6:6d:22:53:18:c0:d6:6d:e6:
                    d9:27:10:e8:bf:a8:e6:6c:00:a5:78:2a:a1:ce:9a:
                    9b:a6:ad:02:dd:57:95:75:56:ae:3f:b7:6a:6a:87:
                    07:c0:68:be:10:07:b9:eb:e9:7b:2c:32:bb:5c:f8:
                    99:88:7a:93:03:e4:62:ed:e5:35:0b:74:94:51:1c:
                    df:a5:c0:bb:fe:2b:18:4a:3c:81:4d:12:d2:3b:aa:
                    4d:0d:ff:9d:ff:51:3e:33:08:46:d0:4e:ff:fe:90:
                    6a:b0:f1:9e:a1:98:ce:0a:0a:85:f5:36:32:cf:25:
                    7d:3f:a9:3a:96:61:40:63:5a:f9:85:ad:35:c3:68:
                    53:e8:1f:c7:91:02:05:a7:34:d1:63:9c:26:7a:4e:
                    8e:ef:ae:3c:e8:35:5c:6f:70:b0:54:75:89:30:3c:
                    5b:66:61:0a:20:c3:62:57:43:9f:cf:64:cc:b2:e4:
                    95:e9
                Exponent: 65537 (0x10001)
        X509v3 extensions:
            Netscape Comment: 
                CA SSL
            X509v3 Basic Constraints: critical
                CA:TRUE, pathlen:0
            X509v3 Subject Key Identifier: 
                7D:D9:08:E2:B3:9F:A8:A8:66:3E:88:D1:FF:D1:26:A2:06:2A:3E:FA
            X509v3 Authority Key Identifier: 
                keyid:30:3C:77:9E:E8:95:1E:F8:1A:F3:3E:9A:B3:80:3B:4E:46:73:02:04
                DirName:/C=FR/ST=Ile-de-France/L=Grigny/O=Cantbreakit/CN=www.root.fr/emailAddress=root@mail.fr
                serial:B3:D8:34:06:EF:0A:DD:F8

            X509v3 Issuer Alternative Name: 
                <EMPTY>

            X509v3 Key Usage: 
                Certificate Sign, CRL Sign
            Netscape Cert Type: 
                SSL CA
    Signature Algorithm: sha1WithRSAEncryption
         85:f0:c5:ce:c8:95:63:62:38:e9:88:1f:b1:8d:45:1d:40:7b:
         20:8c:24:21:b6:2d:33:5a:b6:cb:f0:c7:3a:fa:76:d5:15:0b:
         10:f5:64:eb:45:bd:69:18:c9:80:b6:3d:c5:85:41:6d:53:3e:
         0d:ef:b7:6d:07:f6:d3:24:0b:cd:61:5e:ea:ad:f2:d0:7b:3d:
         c6:be:c0:39:b8:5b:71:b9:ef:1b:7a:27:de:05:93:ea:2c:50:
         06:04:76:bf:05:49:bc:2c:37:07:6b:a4:74:bf:7a:20:91:ce:
         20:41:2c:d0:8d:9e:db:69:69:4e:cf:48:e1:f3:3d:79:d2:ec:
         ea:fd:39:69:cd:c9:b9:a9:55:68:12:90:70:54:c2:41:a6:44:
         a7:e7:d4:51:8c:27:c8:03:3b:ff:03:f1:cc:99:ba:4d:5f:84:
         78:d3:0c:cd:d4:46:91:50:47:ec:dc:d2:91:c4:66:92:1a:80:
         02:cb:18:ad:13:30:3a:53:9e:55:22:5f:a3:9c:d3:20:31:90:
         c4:8b:c3:eb:f5:cd:f5:c2:47:b9:1d:0f:e5:79:34:16:b2:8b:
         dd:07:c9:e7:63:48:a6:4c:88:15:a3:90:06:d7:3d:ad:ea:d8:
         06:fb:3f:f1:2a:78:5e:91:d5:3b:7b:54:e1:74:e6:e5:1c:b4:
         6a:ee:81:4e
-----BEGIN CERTIFICATE-----
MIIErzCCA5egAwIBAgIBAjANBgkqhkiG9w0BAQUFADB/MQswCQYDVQQGEwJGUjEW
MBQGA1UECAwNSWxlLWRlLUZyYW5jZTEPMA0GA1UEBwwGR3JpZ255MRQwEgYDVQQK
DAtDYW50YnJlYWtpdDEUMBIGA1UEAwwLd3d3LnJvb3QuZnIxGzAZBgkqhkiG9w0B
CQEWDHJvb3RAbWFpbC5mcjAeFw0xNjEwMTEwOTI5MDlaFw0xNzEwMTEwOTI5MDla
MIGDMQswCQYDVQQGEwJGUjEQMA4GA1UECAwHRXNzb25uZTEPMA0GA1UEBwwGSnV2
aXN5MRQwEgYDVQQKDAtDYW50YnJlYWtpdDEZMBcGA1UEAwwQd3d3LnNlbWVzdHJl
Mi5mcjEgMB4GCSqGSIb3DQEJARYRc2VtZXN0cmUyQG1haWwuZnIwggEiMA0GCSqG
SIb3DQEBAQUAA4IBDwAwggEKAoIBAQCsnNwxCo8gvNAr/a6ySonKDy0XwZPAl4uB
e5HKinrYmvvXMscRgpRqCO5LI8Gj1Z6FUt9gIL+j76tpr/SXRMM6iMEyYwgNBppT
mn3gOwO38MZtIlMYwNZt5tknEOi/qOZsAKV4KqHOmpumrQLdV5V1Vq4/t2pqhwfA
aL4QB7nr6XssMrtc+JmIepMD5GLt5TULdJRRHN+lwLv+KxhKPIFNEtI7qk0N/53/
UT4zCEbQTv/+kGqw8Z6hmM4KCoX1NjLPJX0/qTqWYUBjWvmFrTXDaFPoH8eRAgWn
NNFjnCZ6To7vrjzoNVxvcLBUdYkwPFtmYQogw2JXQ5/PZMyy5JXpAgMBAAGjggEv
MIIBKzAVBglghkgBhvhCAQ0ECBYGQ0EgU1NMMBIGA1UdEwEB/wQIMAYBAf8CAQAw
HQYDVR0OBBYEFH3ZCOKzn6ioZj6I0f/RJqIGKj76MIGzBgNVHSMEgaswgaiAFDA8
d57olR74GvM+mrOAO05GcwIEoYGEpIGBMH8xCzAJBgNVBAYTAkZSMRYwFAYDVQQI
DA1JbGUtZGUtRnJhbmNlMQ8wDQYDVQQHDAZHcmlnbnkxFDASBgNVBAoMC0NhbnRi
cmVha2l0MRQwEgYDVQQDDAt3d3cucm9vdC5mcjEbMBkGCSqGSIb3DQEJARYMcm9v
dEBtYWlsLmZyggkAs9g0Bu8K3fgwCQYDVR0SBAIwADALBgNVHQ8EBAMCAQYwEQYJ
YIZIAYb4QgEBBAQDAgIEMA0GCSqGSIb3DQEBBQUAA4IBAQCF8MXOyJVjYjjpiB+x
jUUdQHsgjCQhti0zWrbL8Mc6+nbVFQsQ9WTrRb1pGMmAtj3FhUFtUz4N77dtB/bT
JAvNYV7qrfLQez3GvsA5uFtxue8beifeBZPqLFAGBHa/BUm8LDcHa6R0v3ogkc4g
QSzQjZ7baWlOz0jh8z150uzq/Tlpzcm5qVVoEpBwVMJBpkSn59RRjCfIAzv/A/HM
mbpNX4R40wzN1EaRUEfs3NKRxGaSGoACyxitEzA6U55VIl+jnNMgMZDEi8Pr9c31
wke5HQ/leTQWsovdB8nnY0imTIgVo5AG1z2t6tgG+z/xKnhekdU7e1ThdOblHLRq
7oFO
-----END CERTIFICATE-----
