Certificate:
    Data:
        Version: 3 (0x2)
        Serial Number: 4 (0x4)
    Signature Algorithm: sha1WithRSAEncryption
        Issuer: C=CI, ST=Lagune, L=Abidjan, O=Cantbreakit, CN=www.root_cbi_g2.fr/emailAddress=root_cbi_g2@mail.fr
        Validity
            Not Before: Oct 13 09:29:14 2016 GMT
            Not After : Oct 13 09:29:14 2017 GMT
        Subject: C=CI, ST=Lagune, L=Abidjan, O=Cantbreakit, CN=ubuntu/emailAddress=ubuntu@cantbreakit.fr
        Subject Public Key Info:
            Public Key Algorithm: rsaEncryption
                Public-Key: (1024 bit)
                Modulus:
                    00:ca:ca:b0:06:22:84:2f:58:68:7c:77:34:85:fd:
                    17:a9:a8:06:7a:de:60:5d:e5:82:f2:82:dd:66:8b:
                    af:d0:21:7c:87:fd:a9:98:3c:d4:dc:5f:96:af:59:
                    01:bd:b0:e3:84:a2:14:cb:62:af:3e:bc:2a:de:8f:
                    b9:37:2e:ca:f7:cb:e0:4d:90:e6:8d:0b:66:af:78:
                    41:68:67:a5:46:ba:ea:c3:e0:d7:c0:32:06:6d:35:
                    59:57:74:6a:0d:87:b0:45:73:a4:ac:e8:7a:8a:c5:
                    6c:54:25:fc:8f:8a:96:29:3a:19:20:7a:f5:82:8f:
                    8a:7e:1f:61:98:ad:67:a7:81
                Exponent: 65537 (0x10001)
        X509v3 extensions:
            Netscape Comment: 
                Certificat Serveur SSL
            X509v3 Subject Key Identifier: 
                B9:A2:2C:4E:E7:6D:D3:1E:F5:22:12:E2:7A:35:B9:B1:90:8B:AC:6A
            X509v3 Authority Key Identifier: 
                keyid:EB:1A:88:B2:47:EA:BF:24:64:EE:69:41:67:0C:D7:60:86:37:15:3B
                DirName:/C=FR/ST=Ile-de-France/L=Grigny/O=Cantbreakit/CN=www.root.fr/emailAddress=root@mail.fr
                serial:01

            X509v3 Issuer Alternative Name: 
                <EMPTY>

            X509v3 Subject Alternative Name: 
                DNS:www.webserver.com, DNS:www.webserver-bis.com
            X509v3 Basic Constraints: critical
                CA:FALSE
            X509v3 Key Usage: 
                Digital Signature, Non Repudiation, Key Encipherment
            Netscape Cert Type: 
                SSL Server
            X509v3 Extended Key Usage: 
                TLS Web Server Authentication
    Signature Algorithm: sha1WithRSAEncryption
         5f:9d:5c:66:58:03:5c:75:62:d7:f7:a8:65:7e:b9:15:57:a4:
         00:47:a8:2d:fe:b3:e1:a7:c4:b8:78:bd:90:29:fb:05:f6:06:
         20:b8:49:b9:7a:fe:ab:a0:a7:fa:f5:bc:b2:01:83:79:3a:3a:
         24:26:17:bb:73:3a:ee:2f:bb:c2:6d:42:99:24:83:08:fb:6c:
         29:7f:dc:5c:47:47:04:07:a5:04:49:d6:55:0e:ef:27:e5:16:
         a1:ab:b0:c5:87:d9:51:4a:31:7f:8d:f2:da:97:e2:33:ab:f9:
         fd:02:29:b6:63:62:4b:b7:5a:40:15:5a:5b:6e:aa:1a:2e:e9:
         71:5f:bf:1b:b7:32:c3:3d:8d:65:15:b3:17:b4:b5:9e:81:75:
         0f:19:78:ab:59:a0:ac:8b:ff:e7:f5:c2:b9:aa:8d:7d:76:b7:
         fc:0e:5c:90:04:a8:14:3d:47:bf:b1:98:9b:5f:e9:0f:fd:62:
         7e:a8:94:5d:cc:9d:9b:d7:fe:2c:9e:4e:43:a9:bb:c2:ef:7e:
         46:f1:36:37:ea:fc:80:ab:9c:32:fa:b8:52:2b:6a:8c:bf:d8:
         cc:75:73:cf:2b:d8:d9:7c:7b:d3:71:14:30:85:dd:e6:d7:49:
         83:e2:69:58:dc:9d:99:59:41:47:d1:d8:77:ec:99:52:bf:94:
         03:af:e9:16
-----BEGIN CERTIFICATE-----
MIIEeTCCA2GgAwIBAgIBBDANBgkqhkiG9w0BAQUFADCBhzELMAkGA1UEBhMCQ0kx
DzANBgNVBAgMBkxhZ3VuZTEQMA4GA1UEBwwHQWJpZGphbjEUMBIGA1UECgwLQ2Fu
dGJyZWFraXQxGzAZBgNVBAMMEnd3dy5yb290X2NiaV9nMi5mcjEiMCAGCSqGSIb3
DQEJARYTcm9vdF9jYmlfZzJAbWFpbC5mcjAeFw0xNjEwMTMwOTI5MTRaFw0xNzEw
MTMwOTI5MTRaMH0xCzAJBgNVBAYTAkNJMQ8wDQYDVQQIDAZMYWd1bmUxEDAOBgNV
BAcMB0FiaWRqYW4xFDASBgNVBAoMC0NhbnRicmVha2l0MQ8wDQYDVQQDDAZ1YnVu
dHUxJDAiBgkqhkiG9w0BCQEWFXVidW50dUBjYW50YnJlYWtpdC5mcjCBnzANBgkq
hkiG9w0BAQEFAAOBjQAwgYkCgYEAysqwBiKEL1hofHc0hf0XqagGet5gXeWC8oLd
Zouv0CF8h/2pmDzU3F+Wr1kBvbDjhKIUy2KvPrwq3o+5Ny7K98vgTZDmjQtmr3hB
aGelRrrqw+DXwDIGbTVZV3RqDYewRXOkrOh6isVsVCX8j4qWKToZIHr1go+Kfh9h
mK1np4ECAwEAAaOCAXswggF3MCUGCWCGSAGG+EIBDQQYFhZDZXJ0aWZpY2F0IFNl
cnZldXIgU1NMMB0GA1UdDgQWBBS5oixO523THvUiEuJ6NbmxkIusajCBqwYDVR0j
BIGjMIGggBTrGoiyR+q/JGTuaUFnDNdghjcVO6GBhKSBgTB/MQswCQYDVQQGEwJG
UjEWMBQGA1UECAwNSWxlLWRlLUZyYW5jZTEPMA0GA1UEBwwGR3JpZ255MRQwEgYD
VQQKDAtDYW50YnJlYWtpdDEUMBIGA1UEAwwLd3d3LnJvb3QuZnIxGzAZBgkqhkiG
9w0BCQEWDHJvb3RAbWFpbC5mcoIBATAJBgNVHRIEAjAAMDMGA1UdEQQsMCqCEXd3
dy53ZWJzZXJ2ZXIuY29tghV3d3cud2Vic2VydmVyLWJpcy5jb20wDAYDVR0TAQH/
BAIwADALBgNVHQ8EBAMCBeAwEQYJYIZIAYb4QgEBBAQDAgZAMBMGA1UdJQQMMAoG
CCsGAQUFBwMBMA0GCSqGSIb3DQEBBQUAA4IBAQBfnVxmWANcdWLX96hlfrkVV6QA
R6gt/rPhp8S4eL2QKfsF9gYguEm5ev6roKf69byyAYN5OjokJhe7czruL7vCbUKZ
JIMI+2wpf9xcR0cEB6UESdZVDu8n5Rahq7DFh9lRSjF/jfLal+Izq/n9Aim2Y2JL
t1pAFVpbbqoaLulxX78btzLDPY1lFbMXtLWegXUPGXirWaCsi//n9cK5qo19drf8
DlyQBKgUPUe/sZibX+kP/WJ+qJRdzJ2b1/4snk5DqbvC735G8TY36vyAq5wy+rhS
K2qMv9jMdXPPK9jZfHvTcRQwhd3m10mD4mlY3J2ZWUFH0dh37JlSv5QDr+kW
-----END CERTIFICATE-----
