Certificate:
    Data:
        Version: 3 (0x2)
        Serial Number: 1 (0x1)
    Signature Algorithm: sha1WithRSAEncryption
        Issuer: C=CI, ST=Lagune, L=Abidjan, O=Cantbreakit, CN=www.root_cbi_g2.fr/emailAddress=root_cbi_g2@mail.fr
        Validity
            Not Before: Oct 13 09:03:17 2016 GMT
            Not After : Oct 13 09:03:17 2017 GMT
        Subject: C=CI, ST=Lagune, L=Abidjan, O=Cantbreakit, CN=www.serveurvpn.fr/emailAddress=serveur@cantbreakit.fr
        Subject Public Key Info:
            Public Key Algorithm: rsaEncryption
                Public-Key: (1024 bit)
                Modulus:
                    00:cd:ca:79:15:1c:90:43:be:95:d7:33:2c:34:1c:
                    d2:06:91:87:73:d0:39:74:1b:b3:d7:4a:81:24:3a:
                    b0:8d:f5:70:74:a5:b9:4d:8b:6d:8e:7b:1c:d7:0d:
                    af:77:28:f0:0e:6d:6b:72:3c:fd:5e:01:ee:14:21:
                    fe:79:ab:9f:40:84:32:ab:19:24:ea:40:7c:3b:a9:
                    67:ee:4a:11:0b:c8:b5:33:ea:20:01:4d:d9:b7:9e:
                    50:90:cc:96:ff:9c:45:ee:cb:60:e8:2b:1f:62:04:
                    df:74:e4:e3:05:e2:4b:8f:03:f6:2d:9e:a2:1a:f6:
                    80:1e:a8:72:ec:8f:99:59:19
                Exponent: 65537 (0x10001)
        X509v3 extensions:
            Netscape Comment: 
                Certificat Serveur SSL
            X509v3 Subject Key Identifier: 
                E3:2A:27:51:EA:9C:7B:8B:58:85:9F:BF:61:03:2E:D2:DD:C5:8B:82
            X509v3 Authority Key Identifier: 
                keyid:EB:1A:88:B2:47:EA:BF:24:64:EE:69:41:67:0C:D7:60:86:37:15:3B
                DirName:/C=FR/ST=Ile-de-France/L=Grigny/O=Cantbreakit/CN=www.root.fr/emailAddress=root@mail.fr
                serial:01

            X509v3 Issuer Alternative Name: 
                <EMPTY>

            X509v3 Subject Alternative Name: 
                DNS:www.webserver.com, DNS:www.webserver-bis.com
            X509v3 Basic Constraints: critical
                CA:FALSE
            X509v3 Key Usage: 
                Digital Signature, Non Repudiation, Key Encipherment
            Netscape Cert Type: 
                SSL Server
            X509v3 Extended Key Usage: 
                TLS Web Server Authentication
    Signature Algorithm: sha1WithRSAEncryption
         0e:59:f8:eb:35:d2:c2:40:11:a0:60:e1:22:4f:ce:27:c0:4d:
         e5:ef:6a:14:1c:bd:b4:16:26:ee:cb:75:56:4a:77:5d:f7:6e:
         43:13:e1:c0:3b:73:d4:e0:ec:b1:2e:f4:a6:77:70:b1:71:35:
         55:df:d5:12:92:71:7f:23:c1:5d:f3:67:be:63:da:17:b1:58:
         f1:a7:02:a9:8f:c0:37:58:73:e9:e2:b2:c9:b3:46:9d:6b:61:
         f7:86:19:7e:44:13:f8:f0:80:96:06:70:e8:7b:83:50:db:33:
         90:2f:d7:a7:15:c8:ed:74:bd:ce:18:d7:46:5d:36:02:32:49:
         a5:14:88:1a:89:61:0e:f7:cf:c5:2a:5e:0d:8c:10:ef:7c:9a:
         89:b2:69:d4:7e:57:f6:7a:8d:b4:88:29:89:bd:06:1b:b4:b5:
         4b:be:74:7d:d5:23:fe:9a:4b:59:ba:e2:2e:d4:2f:02:31:8c:
         68:e8:ec:d5:a0:57:7a:2a:56:d0:a6:b5:c1:f3:38:36:ec:10:
         85:09:97:10:e6:b2:1c:f7:5b:6e:01:c8:97:0b:2a:42:8d:13:
         d8:0d:a6:08:df:b9:6a:eb:a2:d9:bd:a5:22:91:c1:92:9b:b8:
         3e:89:a2:59:2e:37:b4:58:95:7a:14:3c:fc:3e:4e:a8:ae:17:
         81:19:50:cc
-----BEGIN CERTIFICATE-----
MIIEhjCCA26gAwIBAgIBATANBgkqhkiG9w0BAQUFADCBhzELMAkGA1UEBhMCQ0kx
DzANBgNVBAgMBkxhZ3VuZTEQMA4GA1UEBwwHQWJpZGphbjEUMBIGA1UECgwLQ2Fu
dGJyZWFraXQxGzAZBgNVBAMMEnd3dy5yb290X2NiaV9nMi5mcjEiMCAGCSqGSIb3
DQEJARYTcm9vdF9jYmlfZzJAbWFpbC5mcjAeFw0xNjEwMTMwOTAzMTdaFw0xNzEw
MTMwOTAzMTdaMIGJMQswCQYDVQQGEwJDSTEPMA0GA1UECAwGTGFndW5lMRAwDgYD
VQQHDAdBYmlkamFuMRQwEgYDVQQKDAtDYW50YnJlYWtpdDEaMBgGA1UEAwwRd3d3
LnNlcnZldXJ2cG4uZnIxJTAjBgkqhkiG9w0BCQEWFnNlcnZldXJAY2FudGJyZWFr
aXQuZnIwgZ8wDQYJKoZIhvcNAQEBBQADgY0AMIGJAoGBAM3KeRUckEO+ldczLDQc
0gaRh3PQOXQbs9dKgSQ6sI31cHSluU2LbY57HNcNr3co8A5ta3I8/V4B7hQh/nmr
n0CEMqsZJOpAfDupZ+5KEQvItTPqIAFN2beeUJDMlv+cRe7LYOgrH2IE33Tk4wXi
S48D9i2eohr2gB6ocuyPmVkZAgMBAAGjggF7MIIBdzAlBglghkgBhvhCAQ0EGBYW
Q2VydGlmaWNhdCBTZXJ2ZXVyIFNTTDAdBgNVHQ4EFgQU4yonUeqce4tYhZ+/YQMu
0t3Fi4IwgasGA1UdIwSBozCBoIAU6xqIskfqvyRk7mlBZwzXYIY3FTuhgYSkgYEw
fzELMAkGA1UEBhMCRlIxFjAUBgNVBAgMDUlsZS1kZS1GcmFuY2UxDzANBgNVBAcM
BkdyaWdueTEUMBIGA1UECgwLQ2FudGJyZWFraXQxFDASBgNVBAMMC3d3dy5yb290
LmZyMRswGQYJKoZIhvcNAQkBFgxyb290QG1haWwuZnKCAQEwCQYDVR0SBAIwADAz
BgNVHREELDAqghF3d3cud2Vic2VydmVyLmNvbYIVd3d3LndlYnNlcnZlci1iaXMu
Y29tMAwGA1UdEwEB/wQCMAAwCwYDVR0PBAQDAgXgMBEGCWCGSAGG+EIBAQQEAwIG
QDATBgNVHSUEDDAKBggrBgEFBQcDATANBgkqhkiG9w0BAQUFAAOCAQEADln46zXS
wkARoGDhIk/OJ8BN5e9qFBy9tBYm7st1Vkp3XfduQxPhwDtz1ODssS70pndwsXE1
Vd/VEpJxfyPBXfNnvmPaF7FY8acCqY/AN1hz6eKyybNGnWth94YZfkQT+PCAlgZw
6HuDUNszkC/XpxXI7XS9zhjXRl02AjJJpRSIGolhDvfPxSpeDYwQ73yaibJp1H5X
9nqNtIgpib0GG7S1S750fdUj/ppLWbriLtQvAjGMaOjs1aBXeipW0Ka1wfM4NuwQ
hQmXEOayHPdbbgHIlwsqQo0T2A2mCN+5auui2b2lIpHBkpu4PomiWS43tFiVehQ8
/D5OqK4XgRlQzA==
-----END CERTIFICATE-----
